; Function Attrs: mustprogress nounwind uwtable
define dso_local noundef ptr @_ZN4llvm22timeTraceProfilerBeginENS_9StringRefENS_12function_refIFNSt7__cxx1112basic_stringIcSt11char_traitsIcESaIcEEEvEEE(ptr %0, i64 %1, ptr %2, i64 %3) local_unnamed_addr #3 {
  %5 = alloca %"struct.std::__cxx11::basic_string<char>::__sv_wrapper", align 8
  %6 = alloca %"class.std::__cxx11::basic_string", align 8
  %7 = alloca %"class.std::allocator", align 1
  %8 = tail call align 8 ptr @llvm.threadlocal.address.p0(ptr align 8 @_ZL25TimeTraceProfilerInstance)
  %9 = load ptr, ptr %8, align 8
  %.not = icmp eq ptr %9, null
  br i1 %.not, label %18, label %10

10:                                               ; preds = %4
  call void @_ZNSaIcEC1Ev(ptr noundef nonnull align 1 dereferenceable(1) %7) #20
  call void @llvm.lifetime.start.p0(i64 16, ptr nonnull %5)
  %11 = call { i64, ptr } @_ZNSt7__cxx1112basic_stringIcSt11char_traitsIcESaIcEE17_S_to_string_viewESt17basic_string_viewIcS2_E(i64 %1, ptr %0) #20
  %12 = extractvalue { i64, ptr } %11, 0
  %13 = extractvalue { i64, ptr } %11, 1
  call void @_ZNSt7__cxx1112basic_stringIcSt11char_traitsIcESaIcEE12__sv_wrapperC1ESt17basic_string_viewIcS2_E(ptr noundef nonnull align 8 dereferenceable(16) %5, i64 %12, ptr %13) #20
  %14 = load i64, ptr %5, align 8
  %15 = getelementptr inbounds nuw i8, ptr %5, i64 8
  %16 = load ptr, ptr %15, align 8
  call void @_ZNSt7__cxx1112basic_stringIcSt11char_traitsIcESaIcEEC2ENS4_12__sv_wrapperERKS3_(ptr noundef nonnull align 8 dereferenceable(32) %6, i64 %14, ptr %16, ptr noundef nonnull align 1 dereferenceable(1) %7) #20
  call void @llvm.lifetime.end.p0(i64 16, ptr nonnull %5)
  %17 = call noundef ptr @_ZN4llvm17TimeTraceProfiler5beginENSt7__cxx1112basic_stringIcSt11char_traitsIcESaIcEEENS_12function_refIFS6_vEEEb(ptr noundef nonnull align 8 dereferenceable(16661) %9, ptr noundef nonnull %6, ptr %2, i64 %3, i1 noundef zeroext false)
  call void @_ZNSt7__cxx1112basic_stringIcSt11char_traitsIcESaIcEED1Ev(ptr noundef nonnull align 8 dereferenceable(32) %6) #20
  call void @_ZNSaIcED1Ev(ptr noundef nonnull align 1 dereferenceable(1) %7) #20
  br label %18

18:                                               ; preds = %4, %10
  %.0 = phi ptr [ %17, %10 ], [ null, %4 ]
  ret ptr %.0
}